; Function Attrs: mustprogress nounwind uwtable
define hidden void @_ZN15ShenandoahPacer4waitEm(ptr nocapture noundef nonnull readonly align 8 dereferenceable(480) %0, i64 noundef %1) local_unnamed_addr #0 align 2 {
  %3 = getelementptr inbounds i8, ptr %0, i64 24
  %4 = load ptr, ptr %3, align 8
  %.not.i.i = icmp eq ptr %4, null
  br i1 %.not.i.i, label %_ZN13MonitorLockerC2EP7MonitorN5Mutex18SafepointCheckFlagE.exit.thread, label %6

_ZN13MonitorLockerC2EP7MonitorN5Mutex18SafepointCheckFlagE.exit.thread: ; preds = %2
  %5 = tail call noundef zeroext i1 @_ZN7Monitor4waitEm(ptr noundef nonnull align 8 dereferenceable(104) null, i64 noundef %1) #8
  br label %_ZN13MonitorLockerD2Ev.exit

6:                                                ; preds = %2
  tail call void @_ZN5Mutex4lockEv(ptr noundef nonnull align 8 dereferenceable(104) %4) #8
  %7 = load ptr, ptr %3, align 8
  %8 = tail call noundef zeroext i1 @_ZN7Monitor4waitEm(ptr noundef nonnull align 8 dereferenceable(104) %7, i64 noundef %1) #8
  tail call void @_ZN5Mutex6unlockEv(ptr noundef nonnull align 8 dereferenceable(104) %4) #8
  br label %_ZN13MonitorLockerD2Ev.exit

_ZN13MonitorLockerD2Ev.exit:                      ; preds = %_ZN13MonitorLockerC2EP7MonitorN5Mutex18SafepointCheckFlagE.exit.thread, %6
  ret void
}